(dp1
V798871260123058
p2
I0
sV971295786217136
p3
I0
sV727352880684834
p4
I0
sV964021986958573
p5
I0
sV10202493660488758
p6
I0
sV10202773096821327
p7
I0
sV10205155989641719
p8
I1
sV684048825016507
p9
I0
sV733877263356004
p10
I5
sV10203323316227139
p11
I0
sV10152121875308435
p12
I0
sV10202896985047355
p13
I1
sV514199815384322
p14
I0
sV4794872606670
p15
I0
sV821747531218562
p16
I0
sV737098486371332
p17
I0
sV10205487618499203
p18
I0
sV888094424537014
p19
I0
sV10152451128123404
p20
I4
sV769135133119570
p21
I6
sV314043145453306
p22
I3
sV703679356365921
p23
I0
sV10152618193208073
p24
I0
sV779591912098856
p25
I9
sV691304207582992
p26
I0
sV10201134875812462
p27
I0
sV839875129398254
p28
I0
sV10152874320141600
p29
I8
sV690304217695206
p30
I13
sV10201248320284934
p31
I0
sV758414917547730
p32
I0
sV812971062091411
p33
I1
sV754705251262724
p34
I0
sV923213971030411
p35
I0
sV849047381825528
p36
I0
sV913782381966057
p37
I3
sV851735988191521
p38
I0
sV10203473803185490
p39
I0
sV750169185038375
p40
I0
sV10202935899748002
p41
I0
sV10202704833890819
p42
I0
sV956473284367185
p43
I0
sV10154759159465391
p44
I0
sV10204077943962129
p45
I0
sV736778956392213
p46
I0
sV10202240389385811
p47
I0
sV10204112774453049
p48
I0
sV495671467242369
p49
I0
sV891140567592716
p50
I0
sV10205240009181452
p51
I0
sV851024421582928
p52
I3
sV10204206669672504
p53
I1
sV682956835115074
p54
I0
sV10202348808636590
p55
I1
sV766994303318313
p56
I0
sV995528307140157
p57
I0
sV734277886661777
p58
I0
sV10154887666670472
p59
I0
sV899293946747341
p60
I0
sV10204266521056509
p61
I0
sV744963942214854
p62
I1
sV743893042332532
p63
I0
sV756901201025443
p64
I0
sV1743955572
p65
I1
sV4976823195057
p66
I0
sV1020870621271887
p67
I0
sV10202506923298518
p68
I0
sV889347597755629
p69
I0
sV809438939098420
p70
I0
sV886599068019070
p71
I2
sV10203290581248630
p72
I0
sV10152582857838924
p73
I0
sV10152968405260649
p74
I0
sV904379239572086
p75
I0
sV10204349264185422
p76
I0
sV881633211855593
p77
I0
sV1011179075574215
p78
I0
sV950940558250955
p79
I0
sV742928929098891
p80
I2
sV980452651970143
p81
I0
sV853593928004532
p82
I0
sV625363090886493
p83
I0
sV10152059670777742
p84
I1
sV532732096832113
p85
I4
sV849048915146193
p86
I0
sV608740229271785
p87
I0
sV10205113221171075
p88
I1
sV1503146563303448
p89
I0
sV689341784515184
p90
I0
sV738553512865062
p91
I0
sV568132066621607
p92
I0
sV821816971175017
p93
I0
sV880067842004398
p94
I0
sV788633481182382
p95
I0
sV10205395279506822
p96
I0
sV891118650919474
p97
I0
sV737695879641902
p98
I0
sV906194622744284
p99
I0
sV10204476047972613
p100
I0
sV1015819835110548
p101
I9
sV700094596711973
p102
I0
sV706540779412989
p103
I0
sV478054182332327
p104
I0
sV816201801769636
p105
I0
sV696190853751322
p106
I0
sV10152392528092525
p107
I0
sV10203967942467611
p108
I2
sV649482721816403
p109
I0
sV10204239466779725
p110
I0
sV1042340299126339
p111
I0
sV845617798791954
p112
I0
sV808115239246734
p113
I0
sV10152887623216948
p114
I0
sV840384272652125
p115
I0
sV539590482812400
p116
I0
sV840630132633916
p117
I0
sV10202788177698035
p118
I0
sV599351240194360
p119
I1
sV796314400403512
p120
I0
sV10201116653837676
p121
I0
sV751282068260431
p122
I5
sV611855418941456
p123
I0
sV10201916070182073
p124
I0
sV742100625881998
p125
I4
sV693305920717885
p126
I0
sV603959779681722
p127
I1
sV870484996315989
p128
I0
sV10201573919984718
p129
I0
sV731948850231317
p130
I1
sV10154152916085182
p131
I0
sV10205113220494249
p132
I0
sV669683029753070
p133
I0
sV757865787615011
p134
I0
sV317389818466135
p135
I1
sV795989567130371
p136
I1
sV740293775991149
p137
I0
sV751099734938592
p138
I0
sV10203698536237122
p139
I0
sV815773305149978
p140
I0
sV637600106351376
p141
I1
sV10202816118032195
p142
I0
sV701641319895381
p143
I0
sV753681874680137
p144
I3
sV10202123067196872
p145
I0
sV10202368759355246
p146
I0
sV123088411188803
p147
I0
sV778343605558686
p148
I1
sV737103673022874
p149
I0
sV795144433876661
p150
I0
sV10154860877265311
p151
I0
sV10152946738832994
p152
I0
sV899422196735542
p153
I0
sV673242449379378
p154
I0
sV10204594316801656
p155
I0
sV10201662685877142
p156
I1
sV10201078546044047
p157
I6
sV805646956164339
p158
I0
sV689998207765240
p159
I0
sV831713700186392
p160
I0
sV864512470239950
p161
I0
sV735057069880356
p162
I0
sV10203473749234303
p163
I0
sV812059935517693
p164
I10
sV10205593473265400
p165
I5
sV10201404996681717
p166
I0
sV10204171272021709
p167
I0
sV989920001024188
p168
I3
sV883374248339772
p169
I14
sV783963261662154
p170
I8
sV501018650003679
p171
I0
sV566727063472328
p172
I0
sV664100920340658
p173
I0
sV686796504760678
p174
I8
sV10203763006972345
p175
I3
sV886589544698878
p176
I0
sV767058983317989
p177
I0
sV10201913609960744
p178
I0
sV947997035229724
p179
I9
sV744832535593238
p180
I0
sV882368521781005
p181
I0
sV557475777686357
p182
I0
sV653077054761953
p183
I0
sV4718068645095
p184
I1
sV10201859076278351
p185
I0
sV10203854519820188
p186
I0
sV835419519819521
p187
I0
sV10152261734750728
p188
I1
sV412157408943349
p189
I1
sV10152363492167282
p190
I0
sV774663239267182
p191
I0
sV803136443044253
p192
I0
sV834428709904191
p193
I0
sV853586447987659
p194
I0
sV758960864171880
p195
I0
sV795850690454342
p196
I1
sV703518486361644
p197
I1
sV10203886679460491
p198
I0
sV10154849887165156
p199
I0
sV668177059898774
p200
I0
sV10203269004198823
p201
I2
sV748293081885226
p202
I3
sV852581631428737
p203
I0
sV4833968785281
p204
I0
sV750676501744551
p205
I0
sV817804091614100
p206
I0
sV10153084367609622
p207
I0
sV742687775823523
p208
I0
sV636076899824123
p209
I0
sV811101328927893
p210
I0
sV698112996924694
p211
I0
sV812707835438985
p212
I0
sV699945330049164
p213
I0
sV302497663294810
p214
I0
sV763484703704307
p215
I0
sV843378015692198
p216
I2
sV716019175129709
p217
I0
sV733079393426939
p218
I1
sV524937680975957
p219
I0
sV758378274200752
p220
I0
sV858464410831438
p221
I0
sV748605061870814
p222
I6
sV10203139913444509
p223
I0
sV883798068319638
p224
I17
sV10203236460985050
p225
I0
sV977538922263495
p226
I1
sV10152531089032887
p227
I0
sV791498180913507
p228
I0
sV952089694818796
p229
I0
sV10203092632822183
p230
I0
sV10202881580463013
p231
I0
sV970003596347715
p232
I3
sV925505774126582
p233
I0
sV777457918958167
p234
I1
sV10203624958336909
p235
I0
sV10203355139180313
p236
I0
sV4069985603807
p237
I0
sV751730864876233
p238
I1
sV945482292148219
p239
I0
sV10204211804727902
p240
I1
sV951992034829965
p241
I0
sV1023930867632431
p242
I6
sV378536418938306
p243
I0
sV657441614331578
p244
I0
sV938719112823421
p245
I0
sV710141695750608
p246
I0
sV1079265958755379
p247
I0
sV10152335794891284
p248
I12
sV541740009264131
p249
I0
sV10203754053550704
p250
I0
sV10152104547797046
p251
I0
sV10152393354060683
p252
I0
sV10203703481722868
p253
I1
sV759861490729395
p254
I0
sV10204320126877049
p255
I3
sV823252861018957
p256
I4
sV741910835863191
p257
I0
sV770063116392922
p258
I0
sV10205837834804159
p259
I1
sV10152839471042618
p260
I0
sV835771813140012
p261
I0
sV851888251527998
p262
I0
sV10152869541204264
p263
I0
sV768890333168607
p264
I19
sV10152035988880925
p265
I0
sV711941598863755
p266
I0
sV10204432073355453
p267
I0
sV705093259526140
p268
I0
sV596415660463521
p269
I0
sV618382341564418
p270
I0
sV10203405329307786
p271
I1
sV768789629821637
p272
I33
sV10203983941571566
p273
I0
sV960238094005067
p274
I1
sV955631504450981
p275
I0
sV10205068286125223
p276
I0
sV835120216511312
p277
I0
sV744343808971314
p278
I0
sV787979727879240
p279
I0
sV815048165185244
p280
I9
sV883620618317154
p281
I0
sV753876931369101
p282
I0
sV645000578942566
p283
I0
sV722633457791368
p284
I0
sV10204770786811826
p285
I0
sV10205359104358496
p286
I0
sV649189711820627
p287
I0
sV690456084360069
p288
I0
sV4879089312970
p289
I1
sV664596810289134
p290
I0
sV10205159451651372
p291
I1
sV605865809536935
p292
I1
sV920724557955304
p293
I0
sV10204816908170960
p294
I2
sV700627700029036
p295
I0
sV604613299645436
p296
I0
sV662645253853943
p297
I0
sV541970512586534
p298
I0
sV751285801597669
p299
I5
sV721641811222273
p300
I0
sV799505943451750
p301
I0
sV10152099008883721
p302
I0
sV871224322908579
p303
I1
sV4693647235029
p304
I2
sV10205333495079575
p305
I0
sV759801784071768
p306
I0
sV721760594585110
p307
I0
sV10202490716043853
p308
I0
sV10152803660913290
p309
I0
sV10153343087324112
p310
I0
sV10152844246672495
p311
I0
sV882075708490294
p312
I0
sV746182695461928
p313
I0
sV10202044439152629
p314
I0
sV10152722077195149
p315
I0
sV689461664446739
p316
I5
sV691820490914961
p317
I1
sV10152858851688158
p318
I1
sV801573869898863
p319
I0
sV726453507393177
p320
I24
sV776815579009994
p321
I0
sV905868796092946
p322
I0
sV855238447834275
p323
I0
sV701061139952504
p324
I0
sV761566737211098
p325
I0
sV100001305276300
p326
I0
sV10204534243577508
p327
I0
sV615683818542977
p328
I0
sV1025602330798759
p329
I0
sV10154812600045361
p330
I0
sV895994000412717
p331
I0
sV845400895524782
p332
I0
sV744552555635331
p333
I0
sV10202939664786353
p334
I0
sV10152888310997840
p335
I0
sV277380432468002
p336
I0
sV689995817716719
p337
I5
sV1379218391
p338
I5
sV10152180865066818
p339
I0
sV683464158407159
p340
I0
sV887528914606895
p341
I0
sV10203744137795483
p342
I0
sV608048682633070
p343
I0
sV855391384482553
p344
I0
sV868202963232649
p345
I0
sV756566617687471
p346
I0
sV10152850654233476
p347
I0
sV848393045171035
p348
I1
sV506286266140294
p349
I0
sV721280147909921
p350
I2
sV732557503474387
p351
I2
sV307711479428967
p352
I0
sV747421932019287
p353
I0
sV10203702784514016
p354
I10
sV761655400570620
p355
I0
sV388721154619784
p356
I0
sV10202016549515922
p357
I1
sV10152117342378823
p358
I0
sV746323202121856
p359
I0
sV807341335999440
p360
I0
sV856361407717248
p361
I0
sV805149996170126
p362
I0
sV773204699401362
p363
I0
sV10202473829482125
p364
I0
sV10202908007722449
p365
I0
sV880312428646110
p366
I0
sV696588853732166
p367
I0
sV753915987996806
p368
I42
sV813105825377565
p369
I27
sV845427408841683
p370
I0
sV328625210643265
p371
I1
sV10204729418659410
p372
I0
sV10203148767452585
p373
I0
sV804021482989084
p374
I0
sV828029267230317
p375
I0
sV790843834274232
p376
I0
sV853925681287866
p377
I17
sV789770501074253
p378
I1
sV10203065203010288
p379
I0
sV800740239988242
p380
I1
sV10202561995426074
p381
I2
sV701929676548123
p382
I1
sV10202754215528227
p383
I0
sV10203109461645629
p384
I6
sV758796340847905
p385
I0
sV10204161826460419
p386
I1
sV818124424916265
p387
I0
sV1656753437883379
p388
I0
sV870773682940195
p389
I12
sV611897972253808
p390
I0
sV575471225932043
p391
I1
sV834674506579426
p392
I4
sV747472941964224
p393
I0
sV730373213719478
p394
I0
sV736162733095155
p395
I0
sV877048272313471
p396
I0
sV716556045074690
p397
I0
sV10201725551726093
p398
I1
sV806405452754256
p399
I0
sV694198510633445
p400
I1
sV10201807188375561
p401
I0
sV714790041907784
p402
I0
sV10203844508611639
p403
I0
sV10154830833500317
p404
I0
sV732608586825616
p405
I0
sV10152177284687709
p406
I0
sV802737669750602
p407
I3
sV824524264276530
p408
I0
sV610964702347785
p409
I0
sV702411823146000
p410
I0
sV790694744334403
p411
I0
sV10152922979702446
p412
I0
sV745354955559334
p413
I0
sV952055701474841
p414
I0
sV4920506705785
p415
I0
sV559976290785326
p416
I0
sV10202817736154899
p417
I0
sV10152097049764537
p418
I0
sV857750447590201
p419
I0
sV312992285561017
p420
I0
sV815626768500506
p421
I0
sV733031100106200
p422
I0
sV874313072602179
p423
I0
sV637743463001205
p424
I1
sV764763813546004
p425
I2
sV787982751231560
p426
I0
sV783797445012776
p427
I0
sV777138742340416
p428
I0
sV369785763181915
p429
I2
sV879523128738790
p430
I14
sV780038748709884
p431
I0
sV878505175516156
p432
I0
sV577329729080346
p433
I0
sV735379446537795
p434
I0
sV953686111325650
p435
I0
sV543607429118684
p436
I0
sV10153201669583438
p437
I0
sV10202795592754183
p438
I0
sV736248193117127
p439
I0
sV778902028819178
p440
I0
sV670801272995243
p441
I1
sV738307102896156
p442
I0
sV756694627731764
p443
I0
sV10152921822281474
p444
I0
sV10203422459702982
p445
I0
sV815162405180484
p446
I6
sV696321750417216
p447
I0
sV567918046673571
p448
I0
sV773709689364699
p449
I0
sV10202504332403423
p450
I1
sV10202223470702738
p451
I0
sV376635809171125
p452
I0
sV855273714517963
p453
I0
sV10205024625232444
p454
I3
sV805947439452125
p455
I0
sV747255738660137
p456
I3
sV742051355841719
p457
I1
sV739441382761682
p458
I4
sV738945852815911
p459
I19
sV776322275712833
p460
I0
sV863553283666009
p461
I0
sV763298107056164
p462
I0
sV4785463490623
p463
I7
sV775238585827444
p464
I4
sV10152956303323534
p465
I0
sV800671513327929
p466
I0
sV904208226255872
p467
I0
sV10205181101024154
p468
I0
sV936308629714953
p469
I0
sV848636741847332
p470
I1
sV814299445282721
p471
I1
sV10203696651039764
p472
I1
sV748027211919361
p473
I1
sV828368413882296
p474
I1
sV10201263749675177
p475
I0
sV840031082703779
p476
I0
sV897449290268168
p477
I0
sV720593524645712
p478
I0
sV654474214601119
p479
I1
sV761124700578833
p480
I0
sV4131268535487
p481
I3
sV745201748907893
p482
I0
sV834442233263530
p483
I0
sV616131858493034
p484
I0
sV10203901361557127
p485
I0
sV10152487347252666
p486
I0
sV770280729691454
p487
I0
sV685857118164502
p488
I1
sV831464846904777
p489
I4
sV1021113311248234
p490
I0
sV10201124081782609
p491
I0
sV782800965090694
p492
I2
sV842023595825270
p493
I0
sV807924339249977
p494
I0
sV758363567572467
p495
I0
sV444861398991474
p496
I9
sV10204490987188335
p497
I0
sV721654004586414
p498
I0
sV830483553647470
p499
I0
sV1456072361
p500
I6
sV10201881132748254
p501
I0
sV408321065987523
p502
I0
sV487049241433173
p503
I0
sV785409814850182
p504
I0
sV10152557821536379
p505
I0
sV720123748035486
p506
I8
sV592488437563816
p507
I2
sV726104770791606
p508
I0
sV705088569538475
p509
I0
sV854407041254096
p510
I1
sV10204370755169318
p511
I8
sV750983271647838
p512
I0
sV742538619133324
p513
I9
sV10205643730720903
p514
I0
sV896821937008230
p515
I0
sV10152498154042369
p516
I2
sV10152102964692409
p517
I0
sV10152244208316194
p518
I0
sV980913688590934
p519
I0
sV10201918560724117
p520
I0
sV152294021599078
p521
I1
sV703564079740059
p522
I0
sV750638335024641
p523
I0
sV839794906087280
p524
I13
sV770087023052932
p525
I1
sV10152716586591257
p526
I0
sV724593104295403
p527
I0
sV796690313711059
p528
I7
sV575532955885526
p529
I6
sV668262439877063
p530
I0
sV912684568760401
p531
I1
sV10205069165156862
p532
I5
sV653832801349985
p533
I0
sV10202417254146299
p534
I0
sV617793385031602
p535
I0
sV705074322921201
p536
I0
sV10153511742619237
p537
I0
sV796240743765377
p538
I0
sV10152597427519825
p539
I0
sV898654803501474
p540
I3
sV658108187641913
p541
I0
sV10201639387906823
p542
I2
sV745768808848320
p543
I0
sV818302568180780
p544
I0
sV10202165051599744
p545
I0
sV820029214709784
p546
I0
sV793876950659169
p547
I0
sV907079079304646
p548
I0
sV738011102928794
p549
I15
sV10152468144616417
p550
I0
sV712537575459923
p551
I0
sV865672040116133
p552
I0
sV936922979669648
p553
I0
sV10202806229850227
p554
I0
sV614290018669377
p555
I0
sV685583678171096
p556
I0
sV10152193781810759
p557
I2
sV798687620177335
p558
I0
sV644297699023168
p559
I2
sV10154138940780076
p560
I0
sV798755603499726
p561
I0
sV10202747224776111
p562
I4
sV766613250042228
p563
I0
sV787673901242713
p564
I0
sV790696134321133
p565
I0
sV1584601285096707
p566
I1
sV10205271652212689
p567
I0
sV694326207289651
p568
I0
sV10205524843945557
p569
I5
sV10202438658113796
p570
I0
sV4976493867622
p571
I0
sV994032063946960
p572
I0
sV795014920558769
p573
I13
sV965048566856444
p574
I0
sV771412709618598
p575
I0
sV696545980402106
p576
I0
sV908500759160852
p577
I0
sV800428833336877
p578
I0
sV723567141066531
p579
I3
sV657153464359526
p580
I1
sV760095577371636
p581
I0
sV10204803874192323
p582
I0
sV10203460670581754
p583
I0
sV10201508376772069
p584
I1
sV895636873797243
p585
I0
sV763536283721354
p586
I0
sV829150577119827
p587
I0
sV830969330264056
p588
I0
sV694108117339804
p589
I0
sV861500610548654
p590
I0
sV753984777989215
p591
I1
sV10152238157669713
p592
I0
sV10203927554103574
p593
I1
sV759532714107739
p594
I2
sV653179421401878
p595
I11
sV10202701120621707
p596
I0
sV804115639651345
p597
I0
sV10202735087193009
p598
I0
sV756610531052720
p599
I0
sV10152656488414703
p600
I1
sV991066734253890
p601
I0
sV814000211989461
p602
I0
sV759261587444893
p603
I0
sV774979902549600
p604
I0
sV775002969222789
p605
I0
sV763534347048764
p606
I0
sV730916073661042
p607
I0
sV10152599712554730
p608
I0
sV10204512049434346
p609
I0
sV851850044833229
p610
I2
sV4910111606154
p611
I0
sV748984291821432
p612
I0
sV922897431054175
p613
I0
sV811892908821223
p614
I1
sV853523394669191
p615
I1
sV838179266238868
p616
I0
sV429928270479326
p617
I1
sV10203148399045055
p618
I0
sV873188679365256
p619
I0
sV589791537808481
p620
I0
sV795353243855342
p621
I0
sV592184760901304
p622
I0
sV1063643156995102
p623
I1
sV10205649153369331
p624
I0
sV764705853571334
p625
I0
sV10205622753235051
p626
I0
sV10205171685669991
p627
I1
sV10201268555195750
p628
I0
sV474141006062168
p629
I0
sV766709783383817
p630
I0
sV10205179412672776
p631
I0
sV756346721097732
p632
I0
sV10202189682658543
p633
I0
sV1513461028902225
p634
I0
sV10205453494366519
p635
I0
sV491333264326127
p636
I0
sV773851885999214
p637
I0
sV798293110223687
p638
I0
sV869562099736015
p639
I0
sV982419595120746
p640
I0
sV774457655927633
p641
I0
sV727205704034249
p642
I0
sV822158487807058
p643
I0
sV876684992356091
p644
I0
sV740618579358627
p645
I0
sV10152177807781881
p646
I1
sV10201916681734912
p647
I0
sV10202301569167958
p648
I0
sV773728992662967
p649
I1
sV10152426227857212
p650
I0
sV692483534121548
p651
I0
sV10205487434054294
p652
I0
sV745872412157284
p653
I0
sV4147299019006
p654
I2
sV10152075693701463
p655
I0
sV665453510231277
p656
I0
sV1069752169757921
p657
I1
sV1604309216464213
p658
I0
sV10202561807995420
p659
I0
sV10205294773755854
p660
I1
sV811511548880975
p661
I0
sV808804219175768
p662
I32
sV977066088973915
p663
I0
sV739952866048735
p664
I0
sV629771690442664
p665
I0
sV691071004275166
p666
I1
sV607127569399092
p667
I0
sV918924671467786
p668
I0
sV887642497914106
p669
I0
sV937836766244866
p670
I0
sV779088922115377
p671
I0
sV917030231665194
p672
I0
sV10203725302952395
p673
I1
sV884161811595981
p674
I1
sV925007917515901
p675
I1
sV10152503375557667
p676
I0
sV726129580770535
p677
I0
sV888205304538910
p678
I0
sV10202649237936033
p679
I0
sV992083797473617
p680
I0
sV848101391880415
p681
I0
sV10204990735025416
p682
I0
sV771362932888150
p683
I0
sV853009064719735
p684
I0
sV10204068510413957
p685
I0
sV10204069604363020
p686
I0
sV313125245564657
p687
I0
sV10202351391706019
p688
I0
sV705344769521984
p689
I0
sV875186075865610
p690
I0
sV726686420717113
p691
I6
sV10201032846183054
p692
I1
sV533482923430279
p693
I1
sV721094857941866
p694
I0
sV833435260002098
p695
I0
sV10203350328621153
p696
I0
sV10154812419580161
p697
I0
sV827823097270684
p698
I0
sV763841283685032
p699
I0
sV10204321606667442
p700
I3
sV10152482029421526
p701
I0
sV881335521885412
p702
I11
sV10201173201490973
p703
I2
sV784206511624932
p704
I0
sV878826618828239
p705
I1
sV1655458341335109
p706
I0
sV866116046756260
p707
I0
sV879166715450459
p708
I2
sV718666264841864
p709
I0
sV10152835636772716
p710
I0
sV1034869896530577
p711
I0
sV10203734306855739
p712
I0
sV725638584193930
p713
I0
sV10152491202666405
p714
I1
sV858916657472216
p715
I0
sV856255494387621
p716
I0
sV10202466769523300
p717
I0
sV10203413236363486
p718
I2
sV816660925056875
p719
I0
sV798407313553756
p720
I0
sV825138097496936
p721
I0
sV774984679193036
p722
I2
sV623052967820828
p723
I0
sV10203272001227417
p724
I0
sV649964891719268
p725
I0
sV842089432509071
p726
I0
sV10202705159884489
p727
I0
sV786211898117513
p728
I0
sV914041721954039
p729
I0
sV10152104848710848
p730
I0
sV783494681710866
p731
I0
sV10206210224874082
p732
I0
sV10152942871228383
p733
I0
sV582146378580894
p734
I0
sV898533143507655
p735
I0
sV895544500462628
p736
I0
sV730077493744792
p737
I0
sV663565533729893
p738
I0
sV10205320362835344
p739
I0
sV848756071818407
p740
I2
sV10206176150709116
p741
I0
sV10152958641412160
p742
I0
sV10202878088223098
p743
I0
sV739981932761175
p744
I2
sV10152722888204863
p745
I0
sV884978594855389
p746
I1
sV810544172328588
p747
I0
sV10205341905365889
p748
I0
sV674006079322093
p749
I0
sV10201158421322220
p750
I0
sV10152863283984717
p751
I0
sV870160759661679
p752
I0
sV813710185353126
p753
I0
sV10205253419714172
p754
I0
sV894444423905442
p755
I0
sV10204980708934601
p756
I1
sV660065297392626
p757
I0
sV607510036024777
p758
I0
sV1019486001411449
p759
I0
sV689804801111231
p760
I1
sV10152294218711860
p761
I0
sV753793394700298
p762
I0
sV793324464044661
p763
I0
sV668940956538037
p764
I4
sV669890523130417
p765
I0
sV10152506536582514
p766
I0
sV10152914315627959
p767
I0
sV776024459133767
p768
I0
sV680616215331704
p769
I2
sV701658603258304
p770
I0
sV816065988452849
p771
I0
sV10152152328321818
p772
I0
sV4716739573936
p773
I0
sV842414955780678
p774
I0
sV735788116480529
p775
I20
sV884649481565104
p776
I0
sV808733685834461
p777
I0
sV10203069246480064
p778
I0
sV896166437079927
p779
I0
sV10154231671070184
p780
I8
sV922933727769684
p781
I1
sV606683226103844
p782
I1
sV668685076502483
p783
I0
sV1007919709225407
p784
I0
sV966636213350476
p785
I0
sV10152802040876842
p786
I0
sV10204432724969600
p787
I2
sV312208605649279
p788
I0
sV10205109178307580
p789
I0
sV717900224968552
p790
I0
sV779217055449286
p791
I0
sV10201988134814522
p792
I0
sV901741689838625
p793
I0
sV789225707766933
p794
I0
sV892799950730585
p795
I0
sV297752410431293
p796
I1
sV736908519694739
p797
I3
sV803153413075002
p798
I0
sV10153425107953009
p799
I0
sV10152649773244877
p800
I0
sV739286306094084
p801
I0
sV488020684670913
p802
I1
sV803930592967703
p803
I0
sV10203562593173023
p804
I1
sV639787509450544
p805
I26
sV737092783032583
p806
I0
sV10204960712522023
p807
I0
sV10204834137195797
p808
I0
sV10152585938211153
p809
I0
sV10152196367003017
p810
I0
sV10202830675917658
p811
I11
sV10202406972468885
p812
I0
sV736069006441696
p813
I0
sV808778282502142
p814
I1
sV10203237437711030
p815
I0
sV880426248638747
p816
I0
sV988755051141684
p817
I0
sV777145332333887
p818
I3
sV787721607952166
p819
I1
sV10152531553037945
p820
I0
sV773869282681309
p821
I0
sV558924650920833
p822
I2
sV635168319922753
p823
I0
sV889849687706511
p824
I2
sV772562509454722
p825
I0
sV10152176016467753
p826
I0
sV10204104333381291
p827
I0
sV865002856872686
p828
I0
sV822366734491950
p829
I0
sV572988826167080
p830
I1
sV741871199195344
p831
I2
sV811323888930349
p832
I0
sV815079931864138
p833
I0
sV697530740343964
p834
I0
sV872054472807484
p835
I0
sV871203696241654
p836
I0
sV682480858480142
p837
I0
sV562847137147862
p838
I3
sV706491812777955
p839
I0
sV723985504364182
p840
I0
sV717609325013010
p841
I0
sV803048263120015
p842
I2
sV10152212325076134
p843
I0
sV825682910817065
p844
I0
sV233972110133046
p845
I0
sV634226336661454
p846
I0
sV780349005366011
p847
I0
sV413873252101001
p848
I0
sV10203169372610332
p849
I0
sV808796082495230
p850
I1
sV1066980313329255
p851
I0
sV729367243821058
p852
I0
sV750670548327232
p853
I0
sV996901360326898
p854
I0
sV538926402803697
p855
I0
sV794562980604795
p856
I0
sV362561830587279
p857
I0
sV1058535790839322
p858
I0
sV10152825733028150
p859
I0
sV646263895494697
p860
I0
sV935394949822761
p861
I0
sV913068312036732
p862
I3
sV10204345559463417
p863
I0
sV331520180333200
p864
I0
sV816906594988661
p865
I0
sV10204638877605493
p866
I0
sV980289018653356
p867
I0
sV4129685257040
p868
I0
sV746256715461610
p869
I0
sV874906319186491
p870
I1
sV4944025695614
p871
I0
sV10152848634494314
p872
I0
sV1071848756174712
p873
I0
sV798919113489417
p874
I0
sV816096258450543
p875
I3
sV844294205592852
p876
I0
sV723405024390937
p877
I0
sV792409807472379
p878
I0
sV731150993603896
p879
I0
sV10152865937294395
p880
I0
sV862498907117037
p881
I0
sV890395154304192
p882
I0
sV10152422126941817
p883
I0
sV780638405334268
p884
I0
sV10201308464353878
p885
I1
sV10205129958997587
p886
I0
sV592920220813166
p887
I1
sV844762062240947
p888
I0
sV302149679993433
p889
I0
sV736567536391307
p890
I0
sV677493052328385
p891
I0
sV10201898488422464
p892
I0
sV764893113581723
p893
I4
sV1011602512200045
p894
I0
sV10204363621789569
p895
I0
sV794051823985024
p896
I0
sV387499924743698
p897
I0
sV589309787881708
p898
I0
sV10204752760806340
p899
I0
sV10152417157002136
p900
I0
sV1025078787508986
p901
I1
sV10154629246510207
p902
I1
sV728294260560991
p903
I0
sV720165224703457
p904
I3
sV740308056048062
p905
I0
sV800440236654519
p906
I0
sV326128157581784
p907
I1
sV761853487196451
p908
I0
sV480246842118377
p909
I0
sV800834463272655
p910
I0
sV10152611846992739
p911
I10
sV735950123161502
p912
I0
sV10152830183654283
p913
I3
sV648074141908612
p914
I1
sV742493179137322
p915
I5
sV733518183406576
p916
I0
sV10201700372505706
p917
I0
sV808534915854751
p918
I0
sV531888060
p919
I12
sV449217361886009
p920
I1
sV683295341784022
p921
I0
sV821594211204125
p922
I0
sV878995652113116
p923
I2
sV10202609321501795
p924
I0
sV946317358731171
p925
I0
sV10204448515426697
p926
I2
sV10152574419899020
p927
I0
sV695225817183495
p928
I0
sV321167314703517
p929
I0
sV834197029935451
p930
I0
sV887778951237350
p931
I0
sV613733622036998
p932
I0
sV738037976280369
p933
I0
sV10203714793411278
p934
I0
sV677256622322699
p935
I0
sV1484493321763077
p936
I0
sV10203376864335674
p937
I0
sV750159338404515
p938
I0
sV1526362007615567
p939
I0
sV565394566927544
p940
I0
sV630977317012620
p941
I0
sV10202206725844353
p942
I1
sV10152562796189001
p943
I0
sV563969690413312
p944
I0
sV10152403344063405
p945
I0
sV627145850694691
p946
I0
sV736859573001983
p947
I0
sV4278804664019
p948
I0
sV10202319525104432
p949
I0
sV807942912571194
p950
I0
sV10201849681442506
p951
I1
sV649461358440481
p952
I0
sV809153602478427
p953
I0
sV681522871941849
p954
I3
sV644185852366175
p955
I0
sV876797212361224
p956
I0
sV730039160381980
p957
I0
sV4163602465107
p958
I2
sV10202653304082853
p959
I0
sV839552882762544
p960
I0
sV10204796683054383
p961
I0
sV962820120400868
p962
I0
sV890921780926946
p963
I0
sV701306153268496
p964
I0
sV876190339091962
p965
I0
sV903490676329190
p966
I0
sV919065851444466
p967
I1
sV995843240431712
p968
I0
sV676320845822143
p969
I0
sV10152875514567128
p970
I0
sV836388229705377
p971
I2
sV10204995509908365
p972
I1
sV757643517603149
p973
I5
sV860390670659071
p974
I0
sV898847380140434
p975
I0
sV728214883896135
p976
I0
sV10152844393280890
p977
I0
sV894695340557104
p978
I0
sV783548815044654
p979
I0
sV697529830303073
p980
I0
sV860790973936360
p981
I3
sV10203152743089046
p982
I0
sV10152857655880993
p983
I0
sV743082909045162
p984
I0
sV10204118054129203
p985
I0
sV556859617777807
p986
I0
sV899290583449388
p987
I0
sV858747727482391
p988
I0
sV765258930211834
p989
I0
sV10203938753055328
p990
I0
sV10204433574669363
p991
I0
sV669431183110234
p992
I10
sV864193526939230
p993
I0
sV811915645517742
p994
I0
sV860458193985617
p995
I1
sV906099672751986
p996
I1
sV10204777902473923
p997
I1
sV829602097103250
p998
I0
sV753847594638786
p999
I0
sV10152395955701639
p1000
I2
sV779634952047793
p1001
I0
sV10152185384427081
p1002
I0
sV10201437851987123
p1003
I0
sV874583849240767
p1004
I0
sV10204426957088193
p1005
I1
sV880346128659820
p1006
I0
sV673755856054751
p1007
I0
sV929748573720512
p1008
I0
sV863427017012968
p1009
I0
sV832133290143620
p1010
I0
sV10152269763319147
p1011
I0
sV10202772013435576
p1012
I0
sV787734491296675
p1013
I0
sV749232858453978
p1014
I0
sV733477573410927
p1015
I1
sV903489119665319
p1016
I2
sV802083706519587
p1017
I0
sV853538808006199
p1018
I0
sV10204476886455020
p1019
I1
sV10205182036210978
p1020
I4
sV1520383788184331
p1021
I0
sV744607478926248
p1022
I3
sV697556860312074
p1023
I12
sV10152395148970281
p1024
I13
sV779870328724910
p1025
I0
sV764121843650313
p1026
I0
sV10202335982906825
p1027
I0
sV10152756818467206
p1028
I0
sV513757415397116
p1029
I0
sV715980618466627
p1030
I29
sV805033282890212
p1031
I0
sV722226427834793
p1032
I0
sV10152391967482568
p1033
I0
sV730403760385072
p1034
I1
sV807116746015121
p1035
I6
sV768006233271041
p1036
I0
sV611762698929041
p1037
I0
sV10201801054462459
p1038
I0
sV699751883455540
p1039
I0
sV738171262899523
p1040
I1
sV10152505095488951
p1041
I1
sV882666761767749
p1042
I0
sV405847672896500
p1043
I1
sV10152899105532354
p1044
I0
sV959890550691229
p1045
I2
sV4094241929753
p1046
I0
sV10204693253943975
p1047
I0
sV10152062318402882
p1048
I0
sV337937196385970
p1049
I0
sV10152300982683434
p1050
I0
sV611561965622810
p1051
I0
sV10204051198332561
p1052
I0
sV372242282942343
p1053
I0
sV704756439578439
p1054
I0
sV847837721933412
p1055
I0
sV10205475362748605
p1056
I0
sV658291067559326
p1057
I0
sV684772284974876
p1058
I0
sV776966279027123
p1059
I0
sV877099465647101
p1060
I0
sV722540161162498
p1061
I3
sV895215283836076
p1062
I0
sV10203164234319281
p1063
I0
sV10152401260913121
p1064
I0
sV10201875597028209
p1065
I0
sV10200955208362073
p1066
I4
sV10152337326036355
p1067
I3
sV10152108851712694
p1068
I0
sV721683371241199
p1069
I0
sV884025451616718
p1070
I1
sV10203928393919720
p1071
I1
sV10153034259190769
p1072
I6
sV858467660860303
p1073
I0
sV10201129434476260
p1074
I3
sV821105681236007
p1075
I12
sV950040898356897
p1076
I0
sV855403894472826
p1077
I3
sV843284135694296
p1078
I0
sV10203350297573271
p1079
I0
sV741671782584286
p1080
I0
sV963693443644305
p1081
I1
sV737182219696556
p1082
I0
sV10152832502782591
p1083
I0
sV785814634819770
p1084
I0
sV902826189728711
p1085
I0
sV921121747903845
p1086
I0
sV592159944221406
p1087
I0
sV811441165586352
p1088
I16
sV789920261019409
p1089
I0
sV10151969060237282
p1090
I3
sV10202250456519562
p1091
I1
sV757326544320649
p1092
I1
sV4495278476953
p1093
I0
sV10200841369675994
p1094
I0
sV763789137042016
p1095
I0
sV796996450340367
p1096
I0
sV550018505129350
p1097
I1
sV785196034852530
p1098
I6
sV759975694040354
p1099
I0
sV570249206453774
p1100
I1
sV10202343911583861
p1101
I1
sV10203582658180092
p1102
I0
sV771142292938322
p1103
I3
sV761309543924783
p1104
I0
sV822067681193186
p1105
I0
sV10204568575357797
p1106
I0
sV769364086449655
p1107
I0
sV708618829161615
p1108
I0
sV678951012158283
p1109
I1
sV10152545004818816
p1110
I0
sV853085234721979
p1111
I0
sV10205461702451364
p1112
I1
sV10202090037720834
p1113
I1
sV869010823130976
p1114
I0
sV689562141160688
p1115
I0
sV741512145928238
p1116
I0
sV696775270369829
p1117
I0
sV492299427567250
p1118
I0
sV10203909118190538
p1119
I0
sV960172984008394
p1120
I0
sV806624069400447
p1121
I0
sV10153356545644951
p1122
I0
sV814337381961765
p1123
I1
sV905698046108162
p1124
I0
sV10202047973081249
p1125
I1
sV591437790957857
p1126
I0
sV10204578850101494
p1127
I0
sV1005952896097464
p1128
I0
sV1520984831507120
p1129
I1
sV10152565136708969
p1130
I2
sV791093530953879
p1131
I3
sV777969168887642
p1132
I0
sV867863629893672
p1133
I54
sV10205067240783760
p1134
I0
sV10203554138030250
p1135
I0
sV749342285146339
p1136
I0
sV10201731894498337
p1137
I0
sV926010040757522
p1138
I0
sV750446641677031
p1139
I0
sV533986816737144
p1140
I0
sV678617468919105
p1141
I1
sV870450756319057
p1142
I0
sV766366790122751
p1143
I0
sV10202958001494680
p1144
I1
sV10203724264816020
p1145
I17
sV859203007447688
p1146
I0
sV10154854382790635
p1147
I0
sV860119217360969
p1148
I0
sV690083001034086
p1149
I0
sV714886408560133
p1150
I16
sV671118386258683
p1151
I7
sV680123272100805
p1152
I0
sV683002025119074
p1153
I0
sV10203273717391160
p1154
I0
sV743892795665890
p1155
I3
sV779201158819604
p1156
I0
sV773107669394336
p1157
I0
sV676212585810569
p1158
I0
sV677676245602921
p1159
I1
sV10204326516142432
p1160
I2
sV571274639640814
p1161
I0
sV880060568691140
p1162
I0
sV588928501222607
p1163
I0
sV815046815220447
p1164
I1
sV926531600713433
p1165
I1
sV628171903978900
p1166
I0
sV748189891914368
p1167
I0
sV990070507676908
p1168
I0
sV744853998922463
p1169
I1
sV825049407546869
p1170
I1
sV802749083092530
p1171
I3
sV810890852302860
p1172
I7
sV10204522217929049
p1173
I0
sV794183197320125
p1174
I0
sV672148519500700
p1175
I0
sV911914518819826
p1176
I0
sV10203227030748286
p1177
I0
sV778969308842709
p1178
I1
sV838716149485795
p1179
I1
sV10154680748945456
p1180
I0
sV10152442299492073
p1181
I0
sV1435134256742032
p1182
I0
sV765657770161398
p1183
I0
sV864266576919543
p1184
I7
sV914945238517492
p1185
I0
sV961065253910626
p1186
I3
sV749103698489423
p1187
I0
sV660756780626377
p1188
I1
sV318089655051165
p1189
I1
sV10202030310478682
p1190
I0
sV728966680489046
p1191
I0
sV10204136650844872
p1192
I0
sV357447474436929
p1193
I0
sV843921092338700
p1194
I0
sV780702238664520
p1195
I0
sV10205206063015852
p1196
I0
sV573175159448879
p1197
I1
sV882092078481930
p1198
I0
sV10203157082069134
p1199
I0
sV674628762602427
p1200
I0
sV759785054073783
p1201
I0
sV761023110635887
p1202
I0
sV10203661710044503
p1203
I3
sV742946732451919
p1204
I0
sV4342753862421
p1205
I1
sV10152208959947950
p1206
I2
sV565186466947173
p1207
I2
sV10201995741734618
p1208
I0
sV10203448668077399
p1209
I0
sV730878846962906
p1210
I0
sV10204198717260766
p1211
I0
sV653588394733390
p1212
I0
sV713368328746574
p1213
I2
sV10203363320696039
p1214
I2
sV795411647185197
p1215
I0
sV515487128554980
p1216
I2
sV10152528241669716
p1217
I0
sV711595382261922
p1218
I0
sV728360347185554
p1219
I2
sV10203523134550296
p1220
I0
sV858299104190368
p1221
I0
sV839185469479206
p1222
I0
sV769166079789202
p1223
I0
sV301134016700258
p1224
I0
sV742848699088061
p1225
I1
sV750349918366707
p1226
I0
sV785054968214710
p1227
I2
sV875450732483088
p1228
I0
sV743047695758433
p1229
I0
sV10202646254659803
p1230
I0
sV792958544097395
p1231
I0
sV497054657095391
p1232
I0
sV838431986177750
p1233
I0
sV4455556323785
p1234
I1
sV855065324557350
p1235
I2
sV949697225059542
p1236
I10
sV932964403397709
p1237
I0
sV889127034444562
p1238
I0
sV1556554637914476
p1239
I1
sV10203605970725360
p1240
I0
sV746232325407322
p1241
I0
sV697094747028375
p1242
I0
sV854344291245769
p1243
I0
sV10154251962865104
p1244
I0
sV564596633641012
p1245
I4
sV568697356564743
p1246
I0
sV861985593835528
p1247
I1
sV1583862878501874
p1248
I1
sV746001348813529
p1249
I0
sV868796949814771
p1250
I1
sV809429809100820
p1251
I0
sV10201252795241554
p1252
I7
sV1043281639030880
p1253
I0
sV829351953784131
p1254
I0
sV564666146996693
p1255
I0
sV809716469074603
p1256
I0
sV495186647288279
p1257
I0
sV10204463731307406
p1258
I0
sV10204123666079744
p1259
I1
sV10152399052137489
p1260
I0
sV10154046139795471
p1261
I0
sV100000606079210
p1262
I2
sV10152394098534735
p1263
I0
sV758089667579922
p1264
I0
sV4848083417927
p1265
I0
sV10203046104382669
p1266
I0
sV10152410941954345
p1267
I0
sV748329388586376
p1268
I0
sV820377768026894
p1269
I0
sV10203033249807137
p1270
I0
sV701634366610836
p1271
I0
sV10204351235997523
p1272
I0
sV771685599546484
p1273
I4
sV724349800995377
p1274
I0
sV10152874503374666
p1275
I0
sV679441208837678
p1276
I0
sV951726308189027
p1277
I0
sV10152850997227453
p1278
I7
sV10202001293228142
p1279
I4
sV799887836721198
p1280
I0
sV4674249590712
p1281
I74
sV625920497506918
p1282
I0
sV974134422611940
p1283
I0
sV695860237176566
p1284
I0
sV10152426372187175
p1285
I0
sV10202101672141953
p1286
I2
sV866775480033781
p1287
I0
sV758397517541941
p1288
I0
sV10152817139404347
p1289
I0
sV10204215242278214
p1290
I0
sV10203334196661087
p1291
I6
sV10201998980656654
p1292
I0
sV1053988481293758
p1293
I0
sV824551864278112
p1294
I0
sV10204522813884191
p1295
I0
sV768568036552091
p1296
I0
sV10152729737307642
p1297
I0
sV735296016533955
p1298
I0
sV672016019578692
p1299
I0
sV10202213638198152
p1300
I7
sV537597716350082
p1301
I15
sV10201182954494426
p1302
I6
sV10203263846428632
p1303
I0
sV418166401663779
p1304
I1
sV757365824318506
p1305
I2
sV735063429881304
p1306
I0
sV4184428825318
p1307
I0
sV939921476023719
p1308
I45
sV735055603214648
p1309
I0
sV10201882960434070
p1310
I0
sV10152101549641025
p1311
I0
sV723238334433341
p1312
I0
sV724207037662406
p1313
I1
sV911174028895868
p1314
I0
sV10201351795195133
p1315
I0
sV369964879808969
p1316
I0
sV677261792332744
p1317
I0
sV805278349532628
p1318
I0
sV10202960541588534
p1319
I0
sV10201982889492071
p1320
I3
sV10153389540091110
p1321
I0
sV493788810724295
p1322
I0
sV763212243771786
p1323
I0
sV595645173895713
p1324
I0
sV605037019607742
p1325
I0
sV10152310894306598
p1326
I0
sV875228632506563
p1327
I1
sV10152282887118855
p1328
I0
sV4713841180716
p1329
I1
sV10203629518973003
p1330
I0
sV729649883758255
p1331
I0
sV886783158012588
p1332
I0
sV910289735648871
p1333
I10
sV585357921610604
p1334
I11
sV967451306602794
p1335
I0
sV10203539561107502
p1336
I0
sV10201973666822862
p1337
I4
sV10204368652750245
p1338
I0
sV730171070404062
p1339
I0
sV10152904455538035
p1340
I0
sV791447734210853
p1341
I0
sV888179391201794
p1342
I0
sV884046591618404
p1343
I5
sV805176532873656
p1344
I0
sV820896941304919
p1345
I0
sV746525188752919
p1346
I0
sV688916747811798
p1347
I17
sV742121852539015
p1348
I0
sV10152746878591294
p1349
I0
sV10205234595533942
p1350
I1
sV856747041013687
p1351
I0
sV733625503380402
p1352
I0
sV10204683759355521
p1353
I0
sV779043435478628
p1354
I1
sV578873335589849
p1355
I0
sV10202176919805090
p1356
I0
sV10205224575363661
p1357
I0
sV970770469604182
p1358
I0
sV624285494319548
p1359
I5
sV706064829457201
p1360
I1
sV816598941717156
p1361
I0
sV10152407527750977
p1362
I0
sV743964925693291
p1363
I0
sV669985913039283
p1364
I1
sV10152405765136186
p1365
I0
sV10152926851083902
p1366
I0
sV749840251733361
p1367
I0
sV735043549913714
p1368
I0
sV663962960388184
p1369
I0
sV4402984129948
p1370
I2
sV770900822931553
p1371
I0
sV10201873260193535
p1372
I0
sV313862782140624
p1373
I0
sV825971787462042
p1374
I0
sV697372337043408
p1375
I0
sV813018245404893
p1376
I0
sV818254594854010
p1377
I0
sV813088092063288
p1378
I1
sV558769054224097
p1379
I0
sV10205600319186298
p1380
I2
sV922188601144089
p1381
I0
sV778832868845050
p1382
I0
sV10204169422263111
p1383
I0
sV10152945520716385
p1384
I0
sV875643719136392
p1385
I0
sV802135323163182
p1386
I2
sV782758868448981
p1387
I0
sV991337250880313
p1388
I0
sV670427729672551
p1389
I6
sV10154101336955532
p1390
I0
sV314785762058222
p1391
I0
sV728174050605557
p1392
I0
sV701912886591711
p1393
I0
sV694321127273490
p1394
I3
sV10203981908762753
p1395
I0
sV4028236999778
p1396
I0
sV551737464929242
p1397
I0
sV694260400671733
p1398
I0
sV806836392688076
p1399
I0
sV755564621146252
p1400
I0
sV10203058983050247
p1401
I0
sV10201913606561144
p1402
I0
sV10201062362600930
p1403
I0
sV799641440082580
p1404
I0
sV10203941359749008
p1405
I1
sV10204082066186770
p1406
I0
sV783028361764827
p1407
I1
sV10202794621680189
p1408
I0
sV798506173545372
p1409
I3
sV853268198051580
p1410
I0
sV708223622554921
p1411
I1
sV878996085452934
p1412
I0
sV750102798397396
p1413
I0
sV10202259027139617
p1414
I0
sV609861352470247
p1415
I1
sV711541355582174
p1416
I0
sV826816954013621
p1417
I0
sV1270418916371034
p1418
I0
sV591212847651822
p1419
I1
sV10205020729898581
p1420
I0
sV825113577548260
p1421
I1
sV589360617831528
p1422
I0
sV10202145889807893
p1423
I1
sV10154905250330235
p1424
I0
sV950304698330663
p1425
I2
sV609292912516361
p1426
I0
sV966996126661487
p1427
I0
sV10203014266454459
p1428
I1
sV958602407501938
p1429
I0
sV10202556616420133
p1430
I0
sV613202255458738
p1431
I0
sV10200091520568937
p1432
I0
sV839883686064285
p1433
I0
sV10202931729367166
p1434
I0
sV669132336535382
p1435
I0
sV10152686140538057
p1436
I1
sV10202893059718725
p1437
I0
sV872378572772984
p1438
I4
sV831781163528097
p1439
I1
sV991620247521809
p1440
I0
sV932291373466878
p1441
I18
sV10151975185650496
p1442
I0
sV10202054025030654
p1443
I1
sV807287315999041
p1444
I0
sV10203894365453143
p1445
I0
sV604530546302598
p1446
I0
sV815200138497851
p1447
I1
sV10152819381878903
p1448
I0
sV10201417617037219
p1449
I0
sV949437428416314
p1450
I1
sV823698384339496
p1451
I0
sV794437260576105
p1452
I0
sV10203853403710192
p1453
I0
sV10205366856911107
p1454
I0
sV800357670027790
p1455
I0
sV10152913518755522
p1456
I2
sV904645912898145
p1457
I4
sV10202196173895244
p1458
I0
sV753977051324033
p1459
I0
sV750533268345232
p1460
I2
sV808899902482534
p1461
I0
sV742847139124052
p1462
I0
sV10202795551468601
p1463
I0
sV10152537980032419
p1464
I0
sV753333791414908
p1465
I0
sV754121464641824
p1466
I2
sV10203927520920756
p1467
I0
sV721811287914971
p1468
I3
sV10202528790245147
p1469
I0
sV10203164205492571
p1470
I0
sV10152618199623585
p1471
I1
sV893113237373632
p1472
I0
sV517398155071526
p1473
I3
sV10152783658015155
p1474
I2
sV10152882711726052
p1475
I0
sV10202672139825401
p1476
I0
sV415298825289340
p1477
I0
sV10202504221619222
p1478
I0
sV721449537898409
p1479
I1
sV760703283980395
p1480
I1
sV10202503356969870
p1481
I0
sV10204561919227102
p1482
I0
sV749726878409815
p1483
I0
sV850064751673799
p1484
I0
sV564965476970423
p1485
I0
sV751828738201760
p1486
I0
sV10205101947328984
p1487
I1
sV10152906178234446
p1488
I1
sV10152365144935358
p1489
I0
sV10201502272158201
p1490
I6
sV499813100160262
p1491
I0
sV963990073615542
p1492
I0
sV10152335028072227
p1493
I0
sV712999168772132
p1494
I4
sV10154882651660352
p1495
I0
sV100000920321360
p1496
I3
sV664145890336522
p1497
I1
sV638452539584474
p1498
I2
sV10152576551338746
p1499
I0
sV866082536736184
p1500
I0
sV682540205178321
p1501
I0
sV10152467723507374
p1502
I0
sV10205287328248470
p1503
I2
sV832210333498007
p1504
I0
sV10205436791069945
p1505
I0
sV338864972933017
p1506
I0
sV801946309834847
p1507
I0
sV854961297877216
p1508
I0
sV558539210945998
p1509
I0
sV10152667778246004
p1510
I2
sV520360921423956
p1511
I0
sV10201951901279762
p1512
I0
sV10201882560685352
p1513
I0
sV797476463645942
p1514
I0
sV774591655921352
p1515
I1
sV749555035098768
p1516
I0
sV752954194768733
p1517
I1
sV10205486214700713
p1518
I0
sV929750747053017
p1519
I0
sV721495901262128
p1520
I0
sV10202883814527453
p1521
I1
sV829835697081969
p1522
I0
sV809776332415352
p1523
I0
sV669207133199435
p1524
I1
sV728705577223473
p1525
I1
sV910907838920191
p1526
I0
sV805699592822772
p1527
I0
sV562036177266139
p1528
I0
sV10152302056792123
p1529
I0
sV799060593469417
p1530
I0
sV10204188452972783
p1531
I0
sV10203232751835660
p1532
I0
sV960339363995586
p1533
I3
sV10203730484440738
p1534
I4
sV835162903172426
p1535
I0
sV10152381395711281
p1536
I0
sV801308893259542
p1537
I0
sV902113383151469
p1538
I0
sV10203942194377352
p1539
I0
sV10204143526283187
p1540
I0
sV793033020757705
p1541
I2
sV737601842955706
p1542
I0
sV10203402035964485
p1543
I0
sV10201917754699366
p1544
I2
sV799516420111993
p1545
I2
sV941956015834120
p1546
I0
sV10205383941301690
p1547
I1
sV824685220916878
p1548
I2
sV272048756338087
p1549
I1
sV10204363057978837
p1550
I0
sV774222185964381
p1551
I0
sV808624485861126
p1552
I0
sV803985289639881
p1553
I0
sV777419182324846
p1554
I0
sV703876086368404
p1555
I16
sV805122276215194
p1556
I0
sV721048341312977
p1557
I0
sV10201072918785293
p1558
I1
sV607668296026308
p1559
I1
sV895153967192349
p1560
I0
sV704025309675168
p1561
I2
sV767198183338760
p1562
I0
sV855619297801080
p1563
I19
sV10201942319318095
p1564
I0
sV741112575937428
p1565
I0
sV754954621218599
p1566
I0
sV895764917100824
p1567
I0
sV611873458930075
p1568
I2
sV10202796088643618
p1569
I0
sV814185535312631
p1570
I2
sV651440584973484
p1571
I0
sV773646702683222
p1572
I0
sV722484024495575
p1573
I0
sV697155287020315
p1574
I0
sV805656576139961
p1575
I0
sV672833719449673
p1576
I0
sV669944753123832
p1577
I0
sV878511042178533
p1578
I0
sV10152297799225906
p1579
I1
sV973086569372243
p1580
I2
sV724027404355088
p1581
I0
sV741251962576918
p1582
I0
sV10202172423138514
p1583
I0
sV737033733055326
p1584
I0
sV717838991570489
p1585
I1
sV856726937675375
p1586
I5
sV755226047866946
p1587
I0
sV868787916466435
p1588
I0
sV639160859527681
p1589
I0
sV762925723776440
p1590
I0
sV4781921883734
p1591
I0
sV10202205279052932
p1592
I0
sV836310336380778
p1593
I4
sV919552414739320
p1594
I0
sV772663926090071
p1595
I0
sV873412162691665
p1596
I0
sV874245375939807
p1597
I0
sV686994824707783
p1598
I4
sV10202960692792838
p1599
I0
sV881082598584960
p1600
I19
sV10202654534660635
p1601
I0
sV10202732972597478
p1602
I0
sV718355231582056
p1603
I0
sV994786753871597
p1604
I0
sV522311761
p1605
I1
sV865558243484000
p1606
I0
sV714459611963405
p1607
I0
sV900383713313709
p1608
I0
sV10205337031562941
p1609
I6
sV545628092208490
p1610
I1
sV821311361244616
p1611
I0
sV866141953438694
p1612
I10
sV10152302290560256
p1613
I0
sV749317158437568
p1614
I0
sV10152612087729419
p1615
I0
sV762863283766339
p1616
I0
sV716117595116638
p1617
I0
sV651585801629781
p1618
I0
sV951950661486409
p1619
I0
sV850764174975427
p1620
I0
sV592531657546790
p1621
I0
sV10152591723649901
p1622
I0
sV557830067686549
p1623
I9
sV688099964590199
p1624
I0
sV673757976078904
p1625
I0
sV759013424168597
p1626
I0
sV784911811569696
p1627
I0
sV786620548065866
p1628
I9
sV681595428555262
p1629
I0
sV10202709540118371
p1630
I1
sV10152324688293820
p1631
I0
sV950325471648167
p1632
I3
sV10152902517784031
p1633
I0
sV10152458656680792
p1634
I4
sV723595447718573
p1635
I0
sV10152301940953240
p1636
I0
sV785676298152799
p1637
I0
sV10202857569388399
p1638
I0
sV764865130230153
p1639
I0
sV844304868925811
p1640
I0
sV749253491790072
p1641
I0
sV904294149583346
p1642
I0
sV468053913336559
p1643
I0
sV10152798965384627
p1644
I0
sV742539109150214
p1645
I0
sV806810136031437
p1646
I0
sV801162983258925
p1647
I0
sV10152401330212696
p1648
I0
sV715594785166645
p1649
I7
sV902034819809293
p1650
I2
sV826621110723858
p1651
I0
sV4422067567197
p1652
I0
sV806287646076601
p1653
I0
sV529451017191602
p1654
I0
sV786549241401722
p1655
I1
sV948938435135740
p1656
I7
sV803134263084794
p1657
I0
sV532331290200076
p1658
I0
sV10201436921684393
p1659
I0
sV560176760786546
p1660
I0
sV561549143979878
p1661
I12
sV724491534304124
p1662
I0
sV587452254714581
p1663
I4
sV955028357845019
p1664
I0
sV10152687656088254
p1665
I7
sV10202644542249374
p1666
I12
sV990588897624279
p1667
I1
sV994159897278034
p1668
I0
sV10201770282690074
p1669
I4
sV709536532471124
p1670
I0
sV10201012261349185
p1671
I0
sV907483672601967
p1672
I0
sV854640074555034
p1673
I1
sV312147515641093
p1674
I2
sV10201785328753356
p1675
I1
sV10200853252933693
p1676
I5
sV738336269586336
p1677
I0
sV981706951856128
p1678
I3
sV10152041401921669
p1679
I0
sV548901498549515
p1680
I0
sV783777449
p1681
I0
sV10203871073756154
p1682
I0
sV877111862321468
p1683
I0
sV709783495763523
p1684
I0
sV399062990250843
p1685
I0
sV10203498210765731
p1686
I0
sV800951166631305
p1687
I0
sV758935427495531
p1688
I0
sV10153384016289097
p1689
I3
sV649899671756989
p1690
I0
sV10152384133991876
p1691
I3
sV731116333631303
p1692
I0
sV633910620052343
p1693
I0
sV387180984784344
p1694
I2
sV10205213700363269
p1695
I0
sV10152465540866425
p1696
I0
sV883262285019183
p1697
I0
sV816490135052304
p1698
I4
sV755847331133817
p1699
I0
sV10152117880597876
p1700
I0
sV611299822315189
p1701
I0
sV498477986960823
p1702
I0
sV649314345133908
p1703
I0
sV10202949883699830
p1704
I0
sV713531402060880
p1705
I0
sV10205421175747525
p1706
I0
sV712873912159024
p1707
I0
sV10205161541738062
p1708
I0
sV882285538472144
p1709
I0
sV731128926972574
p1710
I0
sV10204985590459875
p1711
I3
sV10103460126151276
p1712
I0
sV10152001240266898
p1713
I0
sV669810146473470
p1714
I0
sV880140292016122
p1715
I2
sV788711711194425
p1716
I0
sV10151789000347325
p1717
I33
sV758678710847702
p1718
I0
sV785936994784252
p1719
I0
sV705765632798783
p1720
I0
sV846387312089005
p1721
I1
sV839456716094702
p1722
I62
sV803813463015288
p1723
I2
sV10202917811283916
p1724
I0
sV798942350166258
p1725
I0
sV10152672000141392
p1726
I0
sV792039130819113
p1727
I1
sV891268390888021
p1728
I0
sV1577487705813660
p1729
I0
sV10154830685625654
p1730
I7
sV762533037091380
p1731
I2
sV938136399536218
p1732
I0
sV394564294026678
p1733
I0
sV10152879505702154
p1734
I0
sV625174864271494
p1735
I0
sV10203401953554205
p1736
I0
sV10202896490989916
p1737
I0
sV342570999237657
p1738
I1
sV544713215646499
p1739
I0
sV880728338615287
p1740
I1
sV10203608093351158
p1741
I0
sV825729124140178
p1742
I0
sV738773539536793
p1743
I1
sV902481229763349
p1744
I0
sV597124857060438
p1745
I0
sV886579081366359
p1746
I0
sV569763819791327
p1747
I0
sV10204387551203295
p1748
I0
sV652808248173219
p1749
I1
sV10203761920074870
p1750
I0
sV10205253044749497
p1751
I0
sV576294659169564
p1752
I0
sV4364467447861
p1753
I0
sV10203560414675870
p1754
I0
sV819102894819074
p1755
I1
sV716969498338143
p1756
I7
sV751049664979518
p1757
I0
sV593298027445459
p1758
I0
sV681509428629500
p1759
I0
sV586246528142115
p1760
I0
sV10152658493500279
p1761
I0
sV744789162246826
p1762
I0
sV10202889674419267
p1763
I1
sV10203208837642641
p1764
I0
sV10152730359369504
p1765
I0
sV694392947264027
p1766
I0
sV760096484044349
p1767
I0
sV698460916928761
p1768
I2
sV398583400300723
p1769
I0
sV10205181738289228
p1770
I0
sV739360166156469
p1771
I0
sV796002627127542
p1772
I0
sV833336733383627
p1773
I6
sV754104041329852
p1774
I0
sV10152449417357658
p1775
I0
sV812845728757839
p1776
I0
sV838465599516737
p1777
I0
sV817510854979010
p1778
I0
sV10204842877006841
p1779
I2
sV10205631884824583
p1780
I0
sV10201959039117102
p1781
I0
sV828405817220386
p1782
I0
sV10204121712716351
p1783
I0
sV10203528877573026
p1784
I1
sV10203799595494959
p1785
I0
sV1001190459896027
p1786
I0
sV4911408001030
p1787
I5
sV10152511422066586
p1788
I1
sV664478603644130
p1789
I0
sV791769744213880
p1790
I0
sV806737626038025
p1791
I2
sV811104865613196
p1792
I2
sV741158549292291
p1793
I0
sV634252683358762
p1794
I0
sV790093924375742
p1795
I2
sV392783964213647
p1796
I0
sV10202933746358711
p1797
I0
sV864160523617572
p1798
I3
sV680130288710132
p1799
I0
sV10201879952576310
p1800
I0
sV622246524551294
p1801
I0
sV561912273953391
p1802
I0
sV10205091692551631
p1803
I2
sV947971658565331
p1804
I0
sV376827902456026
p1805
I1
sV525485494228466
p1806
I0
sV869694496379887
p1807
I0
sV671143602959462
p1808
I0
sV740164622693632
p1809
I0
sV707411946003577
p1810
I16
sV900350976656783
p1811
I0
sV744463798976863
p1812
I0
sV895436367135474
p1813
I1
sV847190455312212
p1814
I0
sV548177538646178
p1815
I0
sV911994302163175
p1816
I1
sV10201953378310755
p1817
I3
sV779156695462548
p1818
I0
sV726140240754420
p1819
I2
sV741096362640020
p1820
I0
sV759327574144439
p1821
I0
sV10204370847376999
p1822
I0
sV10152369194740267
p1823
I2
sV822396197788988
p1824
I0
sV818914588165019
p1825
I0
sV802623426462135
p1826
I0
sV671165122931832
p1827
I2
sV745041838881313
p1828
I3
sV10202454503584144
p1829
I0
sV928746463804739
p1830
I0
sV714061118679229
p1831
I0
sV10152456282127645
p1832
I0
sV570577246396055
p1833
I2
sV819542511
p1834
I11
sV1022844251074734
p1835
I0
sV338682642983308
p1836
I0
sV353756451456136
p1837
I0
sV836663863050323
p1838
I0
sV711933738866974
p1839
I0
sV934808416532022
p1840
I0
sV689986394455781
p1841
I0
sV989951004387609
p1842
I0
sV10201964700183005
p1843
I2
sV10202973139763857
p1844
I0
sV1062225021
p1845
I2
sV10203027378542979
p1846
I3
sV710971282291987
p1847
I4
sV10152661352593405
p1848
I0
sV10204187257068621
p1849
I1
sV10152878089751411
p1850
I0
sV792787454095744
p1851
I0
sV10152177757886116
p1852
I0
sV780830345308961
p1853
I0
sV651730488275780
p1854
I0
sV10200809184990656
p1855
I0
sV10201152641133140
p1856
I1
sV794710643929653
p1857
I1
sV10205137487577973
p1858
I0
sV642466882504608
p1859
I1
sV730587373683662
p1860
I2
sV1535214480056288
p1861
I2
sV857833517564552
p1862
I0
sV10203819251836121
p1863
I1
sV895807060451976
p1864
I0
sV10204530830532024
p1865
I0
sV961231957238270
p1866
I0
sV10152126724296918
p1867
I0
sV10152371650419438
p1868
I2
sV350165951821477
p1869
I0
sV10203196261406207
p1870
I0
sV10152372651101169
p1871
I6
sV620399488045893
p1872
I0
sV10201585626831834
p1873
I0
sV773925619292453
p1874
I0
sV426618947486238
p1875
I0
sV368835319960187
p1876
I1
sV10202337434543427
p1877
I0
sV739006459500711
p1878
I0
sV566667463433728
p1879
I0
sV651942304895553
p1880
I0
sV748673565186538
p1881
I7
sV567872183343048
p1882
I0
sV732409996841099
p1883
I1
sV10203331769958510
p1884
I0
sV1041646132519638
p1885
I0
sV10201995781072228
p1886
I0
sV819456164766766
p1887
I0
sV10205291477992420
p1888
I0
sV769787549731111
p1889
I0
sV376065469222833
p1890
I0
sV746473302087693
p1891
I0
sV834830883195458
p1892
I1
sV651303788322676
p1893
I0
sV946826805331046
p1894
I0
sV1011424222204855
p1895
I0
sV886574748049326
p1896
I0
sV750311021728861
p1897
I0
sV10203604345323881
p1898
I4
sV10154561731725441
p1899
I0
sV10152341204173629
p1900
I0
sV501000536708464
p1901
I0
sV100001432088715
p1902
I21
sV686243581429130
p1903
I0
sV10203085907660724
p1904
I0
sV639716022806521
p1905
I1
sV653922738031725
p1906
I29
sV762581230444514
p1907
I3
sV813432805375045
p1908
I0
sV10202553616436399
p1909
I2
sV668870846502712
p1910
I5
sV997048250321911
p1911
I6
sV10205259670001156
p1912
I0
sV10203251693747436
p1913
I0
sV902414653125675
p1914
I1
sV770801839617311
p1915
I0
sV10203938277087491
p1916
I1
sV955999574416261
p1917
I0
sV831407176881801
p1918
I0
sV712486875456137
p1919
I0
sV10202074123134882
p1920
I10
sV742002042544248
p1921
I1
sV995929627090792
p1922
I0
sV565854050199027
p1923
I0
sV788014497886526
p1924
I0
sV4814086367018
p1925
I0
sV10205146169393790
p1926
I0
sV10154405768095495
p1927
I2
sV10152324448205753
p1928
I4
sV701239553316472
p1929
I1
sV763655183669809
p1930
I0
sV692743537439944
p1931
I0
sV4851006770051
p1932
I3
sV729270653829417
p1933
I0
sV777065432328531
p1934
I0
sV725851774163439
p1935
I10
sV1005915622768892
p1936
I0
sV658026104317976
p1937
I0
sV10203210222922489
p1938
I0
sV10205138962614349
p1939
I0
sV794537057233563
p1940
I0
sV1041760592516891
p1941
I0
sV728162797235186
p1942
I4
sV878656945484286
p1943
I0
sV806652636062598
p1944
I0
sV852051898178663
p1945
I0
sV750933098261089
p1946
I50
sV694680557254035
p1947
I0
sV10152307462256234
p1948
I0
sV795112427219306
p1949
I0
sV851924164853025
p1950
I1
sV787129824685819
p1951
I0
sV10152383573665974
p1952
I0
sV861249373890919
p1953
I0
sV759364990803100
p1954
I4
sV10152222036317749
p1955
I5
sV10152400747777152
p1956
I1
sV10202890213644214
p1957
I0
sV941807345848472
p1958
I0
sV805593239496810
p1959
I0
sV10201522758829940
p1960
I0
sV10205321919194588
p1961
I0
sV950280614998321
p1962
I0
sV752777308109829
p1963
I0
sV777363162315642
p1964
I0
sV751515378230843
p1965
I0
sV10152487821887399
p1966
I16
sV10203343307437271
p1967
I0
sV10152843770155278
p1968
I0
sV10204929739229183
p1969
I0
sV10203252468846501
p1970
I0
sV10152765406779989
p1971
I3
sV10203159887332688
p1972
I0
sV10203266850139483
p1973
I0
sV871857089544771
p1974
I0
sV595602153869675
p1975
I3
sV10152919791815879
p1976
I0
sV722344417816702
p1977
I1
sV10205209700913277
p1978
I0
sV10201180047822864
p1979
I2
sV801874679874098
p1980
I0
sV854288674632253
p1981
I0
sV10202853193441472
p1982
I2
sV393350867494713
p1983
I1
sV764643516908239
p1984
I0
sV943331725695650
p1985
I0
sV10201271562345890
p1986
I0
sV623484961067198
p1987
I0
sV839912132703167
p1988
I2
sV745492558874635
p1989
I0
sV4775665287753
p1990
I0
sV856143611082597
p1991
I0
sV841217669262558
p1992
I0
sV10205508375938111
p1993
I0
sV304688513064317
p1994
I0
sV811743798890420
p1995
I0
sV265604606967339
p1996
I0
sV10201772227625962
p1997
I0
sV807020536031343
p1998
I0
sV10201174645606776
p1999
I4
sV10203205914653403
p2000
I0
sV10152165210161669
p2001
I0
sV763876977016961
p2002
I0
sV10205720509198795
p2003
I0
sV942411509119995
p2004
I0
sV10204369580585566
p2005
I0
sV829893140356227
p2006
I0
sV808055215904238
p2007
I0
sV10201375158139488
p2008
I0
sV10153461766889988
p2009
I1
sV10201970385443947
p2010
I0
sV10154514209205201
p2011
I0
sV10205124522176378
p2012
I0
sV729970837088850
p2013
I1
sV971392296208050
p2014
I3
sV10152836661175552
p2015
I0
sV821101627947550
p2016
I0
sV4808249702246
p2017
I0
sV618513948261304
p2018
I0
sV305900549577261
p2019
I8
sV10202558268023416
p2020
I2
sV417613248389415
p2021
I0
sV10204744684684304
p2022
I0
sV10205560595562375
p2023
I0
sV317832531674916
p2024
I0
sV10152604815028167
p2025
I0
sV645615992199988
p2026
I41
sV10204007465289596
p2027
I2
sV929336760419432
p2028
I4
sV1009612685720539
p2029
I1
sV737193236328783
p2030
I3
sV10152406196346423
p2031
I0
sV550841031727081
p2032
I0
sV753423051417126
p2033
I0
sV699442143487805
p2034
I0
sV878467492164875
p2035
I0
sV10204233420728445
p2036
I0
sV713301348755977
p2037
I0
sV806852129356238
p2038
I0
sV774508735907374
p2039
I0
sV766861686721014
p2040
I0
sV10201865242529527
p2041
I1
sV10152546621470773
p2042
I0
sV10201895053457433
p2043
I0
sV673442516077166
p2044
I2
sV10204468884863463
p2045
I0
sV809437692453693
p2046
I0
sV763428053681484
p2047
I0
sV674248319362643
p2048
I2
sV723822324375836
p2049
I0
sV10152528048297354
p2050
I0
sV652671671486338
p2051
I7
sV1010204332339108
p2052
I0
sV746528355440635
p2053
I0
sV794859520552300
p2054
I2
sV820002091375653
p2055
I0
sV577498912394257
p2056
I0
sV710277819031543
p2057
I49
sV10203780531985732
p2058
I0
sV10152410816623829
p2059
I0
sV740653859345681
p2060
I0
sV821614264528143
p2061
I1
sV818263238202111
p2062
I0
sV666891340031594
p2063
I2
sV876016449094538
p2064
I0
sV816670275020429
p2065
I0
sV791041760963632
p2066
I0
sV10204057348646644
p2067
I0
sV10202813112623608
p2068
I1
sV804029089643386
p2069
I0
sV700086443421345
p2070
I0
sV100000774207962
p2071
I1
sV10203034225408689
p2072
I0
sV10202985371539840
p2073
I0
sV965983536749875
p2074
I8
sV746391118754599
p2075
I0
sV10201276098784676
p2076
I0
sV860392377324563
p2077
I0
sV766560553438101
p2078
I2
sV916634705031716
p2079
I0
sV764785986904437
p2080
I0
sV10152571384814733
p2081
I0
sV582367118541658
p2082
I0
sV798190140192913
p2083
I0
sV10152623233310432
p2084
I0
sV10205273586989116
p2085
I0
sV10202995408757438
p2086
I0
sV912053722155257
p2087
I0
sV832534856797364
p2088
I0
sV859260587447728
p2089
I1
sV849345811753680
p2090
I0
sV475412392595235
p2091
I0
sV787774281294252
p2092
I0
sV860217714028547
p2093
I0
sV10152471914419074
p2094
I1
sV843387432378062
p2095
I3
sV10152710824477550
p2096
I1
sV802046723175024
p2097
I0
sV100000001690943
p2098
I11
sV625631187562272
p2099
I0
sV930198950327196
p2100
I0
sV10204412865986324
p2101
I0
sV741430162588996
p2102
I0
sV4893124142119
p2103
I0
sV773623699376412
p2104
I0
sV868141519872307
p2105
I0
sV724668854254926
p2106
I1
sV776879889042912
p2107
I1
sV782800171785826
p2108
I0
sV697951803597235
p2109
I0
sV10201629111031484
p2110
I1
sV865905903420621
p2111
I0
sV740064456047867
p2112
I0
sV723879721040669
p2113
I0
sV547740022028676
p2114
I0
sV1028154670543317
p2115
I1
sV908737369139148
p2116
I0
sV955533211142323
p2117
I2
sV659962740787076
p2118
I0
sV4600481788000
p2119
I36
sV10152966644646834
p2120
I0
sV731038026986348
p2121
I0
sV755845571115459
p2122
I0
sV370115756490490
p2123
I0
sV10152307403346993
p2124
I0
sV956763467685723
p2125
I1
sV808128562558919
p2126
I0
sV10200919051577617
p2127
I6
sV798765583519779
p2128
I1
sV735874213155493
p2129
I1
sV855753874437882
p2130
I4
sV671633832907949
p2131
I0
sV669563416442105
p2132
I0
sV10152213677718983
p2133
I0
sV363063250533791
p2134
I0
sV10202002116043069
p2135
I0
sV412627322223075
p2136
I0
sV743437092373974
p2137
I0
sV10152428682471585
p2138
I0
sV878460508853745
p2139
I0
sV1545891632323420
p2140
I0
sV10203428379018912
p2141
I4
sV723887551035488
p2142
I0
sV10153338315789746
p2143
I1
sV566298066847877
p2144
I0
sV741345515954957
p2145
I0
sV717546401674857
p2146
I0
sV720795987987102
p2147
I0
sV1003906452957811
p2148
I0
sV1476353692582591
p2149
I0
sV685997148174267
p2150
I0
sV678659485533138
p2151
I0
sV782795648448299
p2152
I0
sV4869447269979
p2153
I0
sV781839965188338
p2154
I1
sV760390944042569
p2155
I0
sV842135362471399
p2156
I1
sV755001637874335
p2157
I0
sV641610419280979
p2158
I0
sV629499963810366
p2159
I0
sV10204263057877048
p2160
I0
sV828077953881384
p2161
I1
sV10204076017518060
p2162
I0
sV815791655133674
p2163
I1
sV853254991357749
p2164
I0
sV665532266833764
p2165
I0
sV722097401207251
p2166
I0
sV749632958424929
p2167
I0
sV10202389925178671
p2168
I0
sV726723174047583
p2169
I0
sV10201622957736257
p2170
I0
sV867953863263583
p2171
I0
sV10201903327680660
p2172
I3
sV742097192511993
p2173
I0
sV732158773488177
p2174
I0
sV797782936951046
p2175
I2
sV859849484048338
p2176
I0
sV680664958721060
p2177
I0
sV733647233347626
p2178
I4
sV10201849027266727
p2179
I1
sV737885432956680
p2180
I0
sV786359411429508
p2181
I0
sV632950156827279
p2182
I1
sV10201972054742357
p2183
I0
sV859731714077473
p2184
I2
sV665381370250138
p2185
I1
sV626753230752479
p2186
I0
sV948955851801167
p2187
I0
sV10152384206853544
p2188
I3
sV10203654290266633
p2189
I0
sV774632615928067
p2190
I0
sV707335729309713
p2191
I0
sV897831523566712
p2192
I0
sV733099883450949
p2193
I0
sV755725824481473
p2194
I0
sV10152030155897606
p2195
I0
sV656874641032964
p2196
I0
sV10152656962407415
p2197
I0
sV942382539123794
p2198
I0
sV734299636648913
p2199
I0
sV765997526792024
p2200
I0
sV843245969021238
p2201
I0
sV608437465951917
p2202
I0
sV753410264728563
p2203
I0
sV839794962708269
p2204
I0
sV737834506285963
p2205
I0
sV922561354435686
p2206
I0
sV1519590668256204
p2207
I1
sV4806682821098
p2208
I0
sV800530746678303
p2209
I0
sV690297717686222
p2210
I1
sV10203583174037024
p2211
I0
sV778410248873923
p2212
I0
sV867251293308704
p2213
I0
sV686738818079421
p2214
I7
sV771729226178133
p2215
I0
sV10152167293991290
p2216
I0
sV690293427678649
p2217
I0
sV761028290598988
p2218
I2
sV382676308577367
p2219
I0
sV729505387085256
p2220
I0
sV10152523051296874
p2221
I0
sV10202773000198049
p2222
I2
sV741055339273658
p2223
I0
sV10152166503381406
p2224
I0
sV666943750048245
p2225
I0
sV992427297440221
p2226
I0
sV801628363231994
p2227
I0
sV799005666827111
p2228
I0
sV763994586993049
p2229
I5
sV10203040598487265
p2230
I0
sV752719631455943
p2231
I0
sV775904759122664
p2232
I0
sV814208551978421
p2233
I1
sV365317330303101
p2234
I2
sV10152561873878562
p2235
I3
sV423932261084402
p2236
I0
sV829874170404043
p2237
I0
sV823966540988946
p2238
I1
sV10205397010874127
p2239
I0
sV782907838443768
p2240
I0
sV4493189743364
p2241
I2
sV10203259212551578
p2242
I0
sV765529676836863
p2243
I0
sV1551666798410179
p2244
I0
sV630037713780728
p2245
I11
sV815536825156902
p2246
I0
sV746193798789041
p2247
I0
sV741975532522740
p2248
I0
sV10202928735206897
p2249
I4
sV10203049089052316
p2250
I5
sV10203434165230485
p2251
I0
sV10201997045326388
p2252
I1
sV882609445096519
p2253
I0
sV967990043215129
p2254
I0
sV540334226067503
p2255
I0
sV10152947269164923
p2256
I0
sV824279590957450
p2257
I4
sV4345667656519
p2258
I0
sV10202004670038267
p2259
I1
sV799269733449733
p2260
I0
sV10204451767328058
p2261
I1
sV699284286784858
p2262
I0
sV895318733813772
p2263
I0
sV727566037284732
p2264
I25
sV889638564388009
p2265
I8
sV757329611015516
p2266
I0
sV785805194799134
p2267
I0
sV10204198997801938
p2268
I1
sV1518928671680967
p2269
I3
sV10205416653035707
p2270
I0
sV702849789752536
p2271
I1
sV10200949412456947
p2272
I0
sV10152880716988205
p2273
I0
sV690934384334933
p2274
I0
sV10202671456259333
p2275
I9
sV802719736445288
p2276
I4
sV10202471139414413
p2277
I3
sV10152243487562965
p2278
I12
sV404501503031691
p2279
I0
sV612680075483493
p2280
I0
sV734711466609398
p2281
I0
sV716063495155598
p2282
I0
sV735664526510878
p2283
I0
sV10203921193082692
p2284
I0
sV10202434581129164
p2285
I0
sV649107171853262
p2286
I0
sV896211760389556
p2287
I5
sV815632861811415
p2288
I0
sV808747415850947
p2289
I1
sV730743670313765
p2290
I0
sV10201749149522322
p2291
I2
sV747222152022363
p2292
I0
sV10152119567971819
p2293
I0
sV714411825321729
p2294
I0
sV10202338116723731
p2295
I0
sV368562509983781
p2296
I0
sV865625736803642
p2297
I2
sV743383285715996
p2298
I0
sV10205188861303077
p2299
I0
sV925733104107898
p2300
I5
sV10205358440424521
p2301
I0
sV869825933037271
p2302
I1
sV872076379499539
p2303
I0
sV818504541521566
p2304
I1
sV836768549696324
p2305
I0
sV746747688708560
p2306
I0
sV799549103440856
p2307
I0
sV706733142739228
p2308
I10
sV671926019589343
p2309
I2
sV839477946095978
p2310
I0
sV1516272395317124
p2311
I0
sV10152908960133307
p2312
I0
sV674299739291681
p2313
I0
sV1000305366652063
p2314
I0
sV862078427169966
p2315
I4
sV571603199628777
p2316
I0
sV556408037798216
p2317
I0
sV10205198969673265
p2318
I0
sV757362307636587
p2319
I1
sV738957116192619
p2320
I0
sV752825484765363
p2321
I0
sV10202964602789109
p2322
I3
sV787028381318523
p2323
I4
sV10152574794082545
p2324
I1
sV10202051801811114
p2325
I0
sV10202321297968406
p2326
I1
sV10152094478647006
p2327
I1
sV10153429805598797
p2328
I0
sV10154270461030377
p2329
I4
sV741037739324314
p2330
I0
sV10202064064434612
p2331
I0
sV901369103211758
p2332
I0
sV780830741988754
p2333
I2
sV685920431505395
p2334
I0
sV816304785093201
p2335
I8
sV633810630042163
p2336
I5
sV10152332568594449
p2337
I1
sV586316161468523
p2338
I1
sV889114837765706
p2339
I0
sV10203612206249368
p2340
I0
sV10203991001308913
p2341
I0
sV611941802216438
p2342
I0
sV789861764414939
p2343
I0
sV262227443977407
p2344
I1
sV719876918095849
p2345
I2
sV10202841518510272
p2346
I0
sV10203466212233004
p2347
I1
sV901238449889209
p2348
I0
sV734194086670440
p2349
I0
sV960747383938754
p2350
I0
sV735137413208443
p2351
I2
sV874790815869545
p2352
I0
sV753770418019037
p2353
I0
sV737382263007834
p2354
I0
sV776261165718695
p2355
I0
sV564615170338103
p2356
I0
sV10204574492624887
p2357
I0
sV738597196231148
p2358
I0
sV1498899890328948
p2359
I0
sV260729244132770
p2360
I0
sV880455165355526
p2361
I0
sV10152739031063356
p2362
I3
sV833890726639093
p2363
I0
sV740604229332938
p2364
I21
sV393645550785049
p2365
I0
sV754017811318149
p2366
I0
sV610561539056726
p2367
I1
sV630562207013230
p2368
I0
sV964751053538409
p2369
I0
sV10205596912390027
p2370
I0
sV775427939172997
p2371
I0
sV860196617363767
p2372
I0
sV784801404913093
p2373
I0
sV100000654008056
p2374
I3
sV677472925685424
p2375
I0
sV10203363947242823
p2376
I0
sV10203887852690949
p2377
I0
sV812937918749138
p2378
I0
sV746296958794446
p2379
I0
sV739223872794741
p2380
I0
sV10152254428617946
p2381
I0
sV927005070662427
p2382
I0
sV10203345508135204
p2383
I0
sV675580692497351
p2384
I0
sV851748444842201
p2385
I0
sV10152533233708697
p2386
I0
sV615074921955105
p2387
I0
sV685905371499052
p2388
I0
sV764738636904436
p2389
I0
sV10202540018517416
p2390
I0
sV731634196859182
p2391
I0
sV10152743189380148
p2392
I18
sV689326614470554
p2393
I0
sV984150281614821
p2394
I0
sV779433985424453
p2395
I1
sV745016765532420
p2396
I0
sV850050671672173
p2397
I2
sV10153357191185995
p2398
I0
sV671168646276396
p2399
I0
sV10152585137442545
p2400
I0
sV861075740610525
p2401
I0
sV811163125612724
p2402
I0
sV10203172021838118
p2403
I0
sV600853400019724
p2404
I0
sV804075452969300
p2405
I0
sV802365069819787
p2406
I0
sV808214162575871
p2407
I0
sV787625211262335
p2408
I0
sV312869915574085
p2409
I0
sV694685057306384
p2410
I4
sV778881785495974
p2411
I0
sV10153693561907316
p2412
I0
sV305414889617485
p2413
I1
sV365323906950238
p2414
I0
sV760265970672330
p2415
I0
sV10204654162546760
p2416
I0
sV10152507557571635
p2417
I0
sV10152529475846964
p2418
I0
sV699207736842969
p2419
I0
sV773397986056193
p2420
I0
sV834717029886236
p2421
I0
sV823095817732156
p2422
I0
sV10201064970225564
p2423
I0
sV703528909731481
p2424
I0
sV794145683980384
p2425
I0
sV764139833627252
p2426
I11
sV869715696395096
p2427
I0
sV704010056333545
p2428
I0
sV10152918207049853
p2429
I0
sV761194467256930
p2430
I0
sV10152897808174885
p2431
I0
sV10202100217587164
p2432
I0
sV1013686515324015
p2433
I0
sV837940136218479
p2434
I0
sV10151988367486790
p2435
I0
sV857620547604650
p2436
I1
sV734726069928257
p2437
I0
sV10205178362839737
p2438
I2
sV609267565849943
p2439
I0
sV733734966680974
p2440
I0
sV768966049823005
p2441
I1
sV1509593442647566
p2442
I2
sV833168633401990
p2443
I13
sV761701123897854
p2444
I0
sV719214544841742
p2445
I0
sV841557692530976
p2446
I0
sV10203209963717013
p2447
I0
sV831709343555295
p2448
I0
sV889447327766024
p2449
I0
sV10152884788616764
p2450
I0
sV10153115913585744
p2451
I0
sV10152170089713616
p2452
I0
sV965494316810679
p2453
I0
sV936701499691242
p2454
I1
sV300065123526970
p2455
I0
sV1457228434518552
p2456
I0
sV830703503606534
p2457
I0
sV10152581783747360
p2458
I27
sV841552722533734
p2459
I0
sV722382491186061
p2460
I0
sV326673044157801
p2461
I2
sV10202327577949629
p2462
I0
sV778022005593377
p2463
I0
sV10204759291242769
p2464
I0
sV10200096036839874
p2465
I1
sV10152211145007003
p2466
I0
sV644253238989335
p2467
I1
sV10204056564189336
p2468
I0
sV10152404073402413
p2469
I0
sV564897106975333
p2470
I1
sV772898482755559
p2471
I0
sV10152867707426085
p2472
I4
sV540303159439797
p2473
I0
sV669522553169475
p2474
I0
sV1007147062645224
p2475
I0
sV10152524335751045
p2476
I0
sV725280310865198
p2477
I0
sV849910458373268
p2478
I0
sV10201979720479968
p2479
I0
sV10152229584506840
p2480
I0
sV737400226307208
p2481
I0
sV10152612244892515
p2482
I0
sV10201942126540844
p2483
I0
sV10201288631656218
p2484
I0
sV10152430570927177
p2485
I0
sV748621885231522
p2486
I0
sV738330239547725
p2487
I4
sV682444365177829
p2488
I0
sV10152909577222840
p2489
I0
sV661362047286552
p2490
I0
sV10202615545562504
p2491
I4
sV10152995809752494
p2492
I0
sV745288895520971
p2493
I0
sV1572566156312844
p2494
I0
sV756667551051573
p2495
I0
sV703265886378326
p2496
I3
sV10204884533210623
p2497
I0
sV798876336835658
p2498
I0
sV10205192904121817
p2499
I0
sV10203426339874483
p2500
I0
sV888054357891457
p2501
I0
sV738528622869577
p2502
I0
sV10202765606755073
p2503
I0
sV782243251794025
p2504
I11
sV722653411159265
p2505
I0
sV10202195244361912
p2506
I1
sV632553093505413
p2507
I0
sV647988351921106
p2508
I0
sV316177215251109
p2509
I0
sV814252688637558
p2510
I0
sV10202179662333228
p2511
I0
sV828043833918395
p2512
I0
sV660063610695619
p2513
I0
sV943109022384860
p2514
I0
sV861914760489519
p2515
I0
sV707077002690578
p2516
I1
sV721779544557114
p2517
I0
sV838354686206368
p2518
I0
sV10152678733860996
p2519
I0
sV510660105703727
p2520
I0
sV885136531513602
p2521
I0
sV690942400962390
p2522
I0
sV10204437863740176
p2523
I0
sV714358991989160
p2524
I0
sV808822999163525
p2525
I0
sV739119792843153
p2526
I0
sV619578004806242
p2527
I0
sV763995990314786
p2528
I0
sV10153418418805620
p2529
I0
sV10202247798025288
p2530
I0
sV10200205582698964
p2531
I0
sV678559838902760
p2532
I0
sV744465755641419
p2533
I0
sV796967803699590
p2534
I1
sV914432358568107
p2535
I0
sV784166448268073
p2536
I0
sV854093297941313
p2537
I0
sV735923516427859
p2538
I1
sV572969576147354
p2539
I2
sV10203457914262926
p2540
I0
sV782433438472431
p2541
I1
sV10152373407886448
p2542
I0
sV862664870432246
p2543
I0
sV10204634311274569
p2544
I0
s.